target datalayout = "e-m:e-p270:32:32-p271:32:32-p272:64:64-i64:64-i128:128-f80:128-n8:16:32:64-S128"
target triple = "x86_64-pc-linux-gnu"

%struct.Curl_easy = type { i32, i64, i64, ptr, %struct.Curl_llist_node, %struct.Curl_llist_node, i32, i32, %struct.Curl_message, %struct.easy_pollset, %struct.Names, ptr, ptr, ptr, ptr, %struct.SingleRequest, %struct.UserDefined, ptr, ptr, ptr, %struct.Progress, %struct.UrlState, ptr, %struct.PureInfo, %struct.curl_tlssessioninfo }
%struct.Curl_llist_node = type { ptr, ptr, ptr, ptr }
%struct.Curl_message = type { %struct.Curl_llist_node, %struct.CURLMsg }
%struct.CURLMsg = type { i32, ptr, %union.anon }
%union.anon = type { ptr }
%struct.easy_pollset = type { [5 x i32], i32, [5 x i8] }
%struct.Names = type { ptr, i32 }
%struct.SingleRequest = type <{ i64, i64, i64, i64, %struct.curltime, i32, i32, i32, i32, i64, i32, i32, i8, i8, [2 x i8], i32, ptr, ptr, %struct.bufq, i64, i64, ptr, ptr, %union.anon.0, ptr, i8, i32, [3 x i8] }>
%struct.curltime = type { i64, i32 }
%struct.bufq = type { ptr, ptr, ptr, ptr, i64, i64, i64, i32 }
%union.anon.0 = type { ptr }
%struct.UserDefined = type <{ ptr, ptr, ptr, ptr, ptr, ptr, i64, i64, i64, ptr, ptr, i64, ptr, ptr, ptr, ptr, ptr, ptr, ptr, ptr, ptr, ptr, ptr, ptr, ptr, ptr, ptr, ptr, ptr, ptr, ptr, ptr, ptr, ptr, ptr, i64, i64, i64, i64, i64, i64, i64, i64, i64, ptr, ptr, %struct.curl_mimepart, ptr, ptr, ptr, i64, %struct.ssl_config_data, %struct.ssl_config_data, ptr, i16, i8, i8, %struct.ssl_general_config, i32, i32, i32, [4 x i8], ptr, ptr, i64, i32, i8, i8, i8, i8, ptr, ptr, ptr, i32, [4 x i8], [74 x ptr], [8 x ptr], i32, i32, i32, [4 x i8], ptr, i32, [4 x i8], ptr, ptr, ptr, ptr, ptr, i32, i32, i32, i32, i32, i32, i32, i32, i64, ptr, ptr, i64, ptr, i64, ptr, ptr, ptr, ptr, i32, i16, i16, i16, i8, i8, i8, i8, i8, i8, i8, i8, i64, [6 x i8] }>
%struct.curl_mimepart = type { ptr, ptr, i32, i32, ptr, ptr, ptr, ptr, ptr, ptr, ptr, ptr, ptr, ptr, ptr, i64, %struct.mime_state, ptr, %struct.mime_encoder_state, i64 }
%struct.mime_state = type { i32, ptr, i64 }
%struct.mime_encoder_state = type { i64, i64, i64, [256 x i8] }
%struct.ssl_config_data = type { %struct.ssl_primary_config, i64, ptr, ptr, ptr, ptr, ptr, ptr, ptr, i16 }
%struct.ssl_primary_config = type { ptr, ptr, ptr, ptr, ptr, ptr, ptr, ptr, ptr, ptr, ptr, ptr, ptr, ptr, i8, i32, i8, i8 }
%struct.ssl_general_config = type { i32 }
%struct.Progress = type { i64, %struct.pgrs_dir, %struct.pgrs_dir, i64, i64, i32, i32, i64, i64, i64, i64, i64, i64, i64, i64, i64, %struct.curltime, %struct.curltime, %struct.curltime, %struct.curltime, %struct.curltime, [6 x i64], [6 x %struct.curltime], i32, i8 }
%struct.pgrs_dir = type { i64, i64, i64, %struct.pgrs_measure }
%struct.pgrs_measure = type { %struct.curltime, i64 }
%struct.UrlState = type { %struct.curltime, i64, i64, %struct.dynbuf, ptr, i64, ptr, i32, i32, i32, ptr, i32, i64, i32, ptr, %struct.digestdata, %struct.digestdata, %struct.auth, %struct.auth, %struct.Curl_async, ptr, i8, %struct.curltime, %struct.Curl_tree, %struct.Curl_llist, [15 x %struct.time_node], ptr, ptr, i64, i64, i64, i64, [32 x i8], i64, ptr, ptr, ptr, %struct.urlpieces, ptr, ptr, ptr, ptr, ptr, i64, %struct.dynbuf, %struct.Curl_llist, [2 x %struct.curl_header], ptr, i32, ptr, ptr, %struct.store_netrc, %struct.dynamically_allocated_data, i8, i8, i8, i8, i32 }
%struct.digestdata = type { ptr, ptr, ptr, ptr, ptr, ptr, i32, i8, i8 }
%struct.auth = type { i64, i64, i64, i8 }
%struct.Curl_async = type { ptr, ptr, ptr, ptr, i32, i32, i8 }
%struct.Curl_tree = type { ptr, ptr, ptr, ptr, %struct.curltime, ptr }
%struct.time_node = type { %struct.Curl_llist_node, %struct.curltime, i32 }
%struct.urlpieces = type { ptr, ptr, ptr, ptr, ptr, ptr, ptr, ptr }
%struct.dynbuf = type { ptr, i64, i64, i64 }
%struct.Curl_llist = type { ptr, ptr, ptr, i64 }
%struct.curl_header = type { ptr, ptr, i64, i64, i32, ptr }
%struct.store_netrc = type { %struct.dynbuf, ptr, i8 }
%struct.dynamically_allocated_data = type { ptr, ptr, ptr, ptr, ptr, ptr, ptr, ptr, ptr, ptr, ptr, ptr, ptr, ptr }
%struct.PureInfo = type { i32, i32, i32, i64, i64, i64, i64, i64, i64, i64, ptr, ptr, i64, i32, %struct.ip_quadruple, i32, ptr, i32, %struct.curl_certinfo, i32, i8 }
%struct.ip_quadruple = type { [46 x i8], [46 x i8], i32, i32 }
%struct.curl_certinfo = type { i32, ptr }
%struct.curl_tlssessioninfo = type { i32, ptr }

@Curl_cfree = external global ptr, align 8
@.str.95 = private unnamed_addr constant [6 x i8] c"Range\00", align 1
@.str.96 = private unnamed_addr constant [18 x i8] c"Range: bytes=%s\0D\0A\00", align 1
@.str.97 = private unnamed_addr constant [14 x i8] c"Content-Range\00", align 1
@.str.98 = private unnamed_addr constant [33 x i8] c"Content-Range: bytes 0-%ld/%ld\0D\0A\00", align 1
@.str.99 = private unnamed_addr constant [33 x i8] c"Content-Range: bytes %s%ld/%ld\0D\0A\00", align 1
@.str.100 = private unnamed_addr constant [30 x i8] c"Content-Range: bytes %s/%ld\0D\0A\00", align 1

; Function Attrs: nounwind uwtable
define internal i32 @http_range(ptr noundef %0, i32 noundef %1) #0 {
  %3 = alloca i32, align 4
  %4 = alloca ptr, align 8
  %5 = alloca i32, align 4
  %6 = alloca i64, align 8
  %7 = alloca i64, align 8
  %8 = alloca i32, align 4
  store ptr %0, ptr %4, align 8, !tbaa !3
  store i32 %1, ptr %5, align 4, !tbaa !78
  %9 = load ptr, ptr %4, align 8, !tbaa !3
  %10 = getelementptr inbounds nuw %struct.Curl_easy, ptr %9, i32 0, i32 21
  %11 = getelementptr inbounds nuw %struct.UrlState, ptr %10, i32 0, i32 57
  %12 = load i32, ptr %11, align 4
  %13 = lshr i32 %12, 10
  %14 = and i32 %13, 1
  %15 = icmp ne i32 %14, 0
  br i1 %15, label %16, label %141

16:                                               ; preds = %2
  %17 = load i32, ptr %5, align 4, !tbaa !78
  %18 = icmp eq i32 %17, 0
  br i1 %18, label %22, label %19

19:                                               ; preds = %16
  %20 = load i32, ptr %5, align 4, !tbaa !78
  %21 = icmp eq i32 %20, 5
  br i1 %21, label %22, label %42

22:                                               ; preds = %19, %16
  %23 = load ptr, ptr %4, align 8, !tbaa !3
  %24 = call ptr @Curl_checkheaders(ptr noundef %23, ptr noundef @.str.95, i64 noundef 5)
  %25 = icmp ne ptr %24, null
  br i1 %25, label %42, label %26

26:                                               ; preds = %22
  %27 = load ptr, ptr @Curl_cfree, align 8, !tbaa !96
  %28 = load ptr, ptr %4, align 8, !tbaa !3
  %29 = getelementptr inbounds nuw %struct.Curl_easy, ptr %28, i32 0, i32 21
  %30 = getelementptr inbounds nuw %struct.UrlState, ptr %29, i32 0, i32 52
  %31 = getelementptr inbounds nuw %struct.dynamically_allocated_data, ptr %30, i32 0, i32 3
  %32 = load ptr, ptr %31, align 8, !tbaa !106
  call void %27(ptr noundef %32)
  %33 = load ptr, ptr %4, align 8, !tbaa !3
  %34 = getelementptr inbounds nuw %struct.Curl_easy, ptr %33, i32 0, i32 21
  %35 = getelementptr inbounds nuw %struct.UrlState, ptr %34, i32 0, i32 27
  %36 = load ptr, ptr %35, align 8, !tbaa !206
  %37 = call ptr (ptr, ...) @curl_maprintf(ptr noundef @.str.96, ptr noundef %36)
  %38 = load ptr, ptr %4, align 8, !tbaa !3
  %39 = getelementptr inbounds nuw %struct.Curl_easy, ptr %38, i32 0, i32 21
  %40 = getelementptr inbounds nuw %struct.UrlState, ptr %39, i32 0, i32 52
  %41 = getelementptr inbounds nuw %struct.dynamically_allocated_data, ptr %40, i32 0, i32 3
  store ptr %37, ptr %41, align 8, !tbaa !106
  br label %140

42:                                               ; preds = %22, %19
  %43 = load i32, ptr %5, align 4, !tbaa !78
  %44 = icmp eq i32 %43, 1
  br i1 %44, label %48, label %45

45:                                               ; preds = %42
  %46 = load i32, ptr %5, align 4, !tbaa !78
  %47 = icmp eq i32 %46, 4
  br i1 %47, label %48, label %139

48:                                               ; preds = %45, %42
  %49 = load ptr, ptr %4, align 8, !tbaa !3
  %50 = call ptr @Curl_checkheaders(ptr noundef %49, ptr noundef @.str.97, i64 noundef 13)
  %51 = icmp ne ptr %50, null
  br i1 %51, label %139, label %52

52:                                               ; preds = %48
  call void @llvm.lifetime.start.p0(i64 8, ptr %6) #7
  %53 = load ptr, ptr %4, align 8, !tbaa !3
  %54 = call i64 @Curl_creader_total_length(ptr noundef %53)
  store i64 %54, ptr %6, align 8, !tbaa !119
  %55 = load ptr, ptr @Curl_cfree, align 8, !tbaa !96
  %56 = load ptr, ptr %4, align 8, !tbaa !3
  %57 = getelementptr inbounds nuw %struct.Curl_easy, ptr %56, i32 0, i32 21
  %58 = getelementptr inbounds nuw %struct.UrlState, ptr %57, i32 0, i32 52
  %59 = getelementptr inbounds nuw %struct.dynamically_allocated_data, ptr %58, i32 0, i32 3
  %60 = load ptr, ptr %59, align 8, !tbaa !106
  call void %55(ptr noundef %60)
  %61 = load ptr, ptr %4, align 8, !tbaa !3
  %62 = getelementptr inbounds nuw %struct.Curl_easy, ptr %61, i32 0, i32 16
  %63 = getelementptr inbounds nuw %struct.UserDefined, ptr %62, i32 0, i32 43
  %64 = load i64, ptr %63, align 8, !tbaa !207
  %65 = icmp slt i64 %64, 0
  br i1 %65, label %66, label %75

66:                                               ; preds = %52
  %67 = load i64, ptr %6, align 8, !tbaa !119
  %68 = sub nsw i64 %67, 1
  %69 = load i64, ptr %6, align 8, !tbaa !119
  %70 = call ptr (ptr, ...) @curl_maprintf(ptr noundef @.str.98, i64 noundef %68, i64 noundef %69)
  %71 = load ptr, ptr %4, align 8, !tbaa !3
  %72 = getelementptr inbounds nuw %struct.Curl_easy, ptr %71, i32 0, i32 21
  %73 = getelementptr inbounds nuw %struct.UrlState, ptr %72, i32 0, i32 52
  %74 = getelementptr inbounds nuw %struct.dynamically_allocated_data, ptr %73, i32 0, i32 3
  store ptr %70, ptr %74, align 8, !tbaa !106
  br label %127

75:                                               ; preds = %52
  %76 = load ptr, ptr %4, align 8, !tbaa !3
  %77 = getelementptr inbounds nuw %struct.Curl_easy, ptr %76, i32 0, i32 21
  %78 = getelementptr inbounds nuw %struct.UrlState, ptr %77, i32 0, i32 28
  %79 = load i64, ptr %78, align 8, !tbaa !167
  %80 = icmp ne i64 %79, 0
  br i1 %80, label %81, label %115

81:                                               ; preds = %75
  call void @llvm.lifetime.start.p0(i64 8, ptr %7) #7
  %82 = load ptr, ptr %4, align 8, !tbaa !3
  %83 = getelementptr inbounds nuw %struct.Curl_easy, ptr %82, i32 0, i32 15
  %84 = getelementptr inbounds nuw %struct.SingleRequest, ptr %83, i32 0, i32 26
  %85 = load i32, ptr %84, align 1
  %86 = lshr i32 %85, 18
  %87 = and i32 %86, 1
  %88 = icmp ne i32 %87, 0
  br i1 %88, label %89, label %94

89:                                               ; preds = %81
  %90 = load ptr, ptr %4, align 8, !tbaa !3
  %91 = getelementptr inbounds nuw %struct.Curl_easy, ptr %90, i32 0, i32 21
  %92 = getelementptr inbounds nuw %struct.UrlState, ptr %91, i32 0, i32 33
  %93 = load i64, ptr %92, align 8, !tbaa !208
  br label %101

94:                                               ; preds = %81
  %95 = load ptr, ptr %4, align 8, !tbaa !3
  %96 = getelementptr inbounds nuw %struct.Curl_easy, ptr %95, i32 0, i32 21
  %97 = getelementptr inbounds nuw %struct.UrlState, ptr %96, i32 0, i32 28
  %98 = load i64, ptr %97, align 8, !tbaa !167
  %99 = load i64, ptr %6, align 8, !tbaa !119
  %100 = add nsw i64 %98, %99
  br label %101

101:                                              ; preds = %94, %89
  %102 = phi i64 [ %93, %89 ], [ %100, %94 ]
  store i64 %102, ptr %7, align 8, !tbaa !119
  %103 = load ptr, ptr %4, align 8, !tbaa !3
  %104 = getelementptr inbounds nuw %struct.Curl_easy, ptr %103, i32 0, i32 21
  %105 = getelementptr inbounds nuw %struct.UrlState, ptr %104, i32 0, i32 27
  %106 = load ptr, ptr %105, align 8, !tbaa !206
  %107 = load i64, ptr %7, align 8, !tbaa !119
  %108 = sub nsw i64 %107, 1
  %109 = load i64, ptr %7, align 8, !tbaa !119
  %110 = call ptr (ptr, ...) @curl_maprintf(ptr noundef @.str.99, ptr noundef %106, i64 noundef %108, i64 noundef %109)
  %111 = load ptr, ptr %4, align 8, !tbaa !3
  %112 = getelementptr inbounds nuw %struct.Curl_easy, ptr %111, i32 0, i32 21
  %113 = getelementptr inbounds nuw %struct.UrlState, ptr %112, i32 0, i32 52
  %114 = getelementptr inbounds nuw %struct.dynamically_allocated_data, ptr %113, i32 0, i32 3
  store ptr %110, ptr %114, align 8, !tbaa !106
  call void @llvm.lifetime.end.p0(i64 8, ptr %7) #7
  br label %126

115:                                              ; preds = %75
  %116 = load ptr, ptr %4, align 8, !tbaa !3
  %117 = getelementptr inbounds nuw %struct.Curl_easy, ptr %116, i32 0, i32 21
  %118 = getelementptr inbounds nuw %struct.UrlState, ptr %117, i32 0, i32 27
  %119 = load ptr, ptr %118, align 8, !tbaa !206
  %120 = load i64, ptr %6, align 8, !tbaa !119
  %121 = call ptr (ptr, ...) @curl_maprintf(ptr noundef @.str.100, ptr noundef %119, i64 noundef %120)
  %122 = load ptr, ptr %4, align 8, !tbaa !3
  %123 = getelementptr inbounds nuw %struct.Curl_easy, ptr %122, i32 0, i32 21
  %124 = getelementptr inbounds nuw %struct.UrlState, ptr %123, i32 0, i32 52
  %125 = getelementptr inbounds nuw %struct.dynamically_allocated_data, ptr %124, i32 0, i32 3
  store ptr %121, ptr %125, align 8, !tbaa !106
  br label %126

126:                                              ; preds = %115, %101
  br label %127

127:                                              ; preds = %126, %66
  %128 = load ptr, ptr %4, align 8, !tbaa !3
  %129 = getelementptr inbounds nuw %struct.Curl_easy, ptr %128, i32 0, i32 21
  %130 = getelementptr inbounds nuw %struct.UrlState, ptr %129, i32 0, i32 52
  %131 = getelementptr inbounds nuw %struct.dynamically_allocated_data, ptr %130, i32 0, i32 3
  %132 = load ptr, ptr %131, align 8, !tbaa !106
  %133 = icmp ne ptr %132, null
  br i1 %133, label %135, label %134

134:                                              ; preds = %127
  store i32 27, ptr %3, align 4
  store i32 1, ptr %8, align 4
  br label %136

135:                                              ; preds = %127
  store i32 0, ptr %8, align 4
  br label %136

136:                                              ; preds = %135, %134
  call void @llvm.lifetime.end.p0(i64 8, ptr %6) #7
  %137 = load i32, ptr %8, align 4
  switch i32 %137, label %144 [
    i32 0, label %138
    i32 1, label %142
  ]

138:                                              ; preds = %136
  br label %139

139:                                              ; preds = %138, %48, %45
  br label %140

140:                                              ; preds = %139, %26
  br label %141

141:                                              ; preds = %140, %2
  store i32 0, ptr %3, align 4
  br label %142

142:                                              ; preds = %141, %136
  %143 = load i32, ptr %3, align 4
  ret i32 %143

144:                                              ; preds = %136
  unreachable
}