; Function Attrs: nounwind uwtable
define internal fastcc range(i32 0, 28) i32 @http_range(ptr noundef %0, i32 noundef %1) unnamed_addr #0 {
  %3 = getelementptr inbounds nuw i8, ptr %0, i64 5036
  %4 = load i32, ptr %3, align 4
  %5 = and i32 %4, 1024
  %.not = icmp eq i32 %5, 0
  br i1 %.not, label %53, label %6

6:                                                ; preds = %2
  switch i32 %1, label %53 [
    i32 5, label %7
    i32 0, label %7
    i32 4, label %17
    i32 1, label %17
  ]

7:                                                ; preds = %6, %6
  %8 = tail call ptr @Curl_checkheaders(ptr noundef nonnull %0, ptr noundef nonnull @.str.95, i64 noundef 5) #11
  %.not35 = icmp eq ptr %8, null
  br i1 %.not35, label %9, label %16

9:                                                ; preds = %7
  %10 = load ptr, ptr @Curl_cfree, align 8, !tbaa !88
  %11 = getelementptr inbounds nuw i8, ptr %0, i64 4944
  %12 = load ptr, ptr %11, align 8, !tbaa !114
  tail call void %10(ptr noundef %12) #11
  %13 = getelementptr inbounds nuw i8, ptr %0, i64 4464
  %14 = load ptr, ptr %13, align 8, !tbaa !192
  %15 = tail call ptr (ptr, ...) @curl_maprintf(ptr noundef nonnull @.str.96, ptr noundef %14) #11
  store ptr %15, ptr %11, align 8, !tbaa !114
  br label %53

16:                                               ; preds = %7
  switch i32 %1, label %53 [
    i32 4, label %17
    i32 1, label %17
  ]

17:                                               ; preds = %6, %6, %16, %16
  %18 = tail call ptr @Curl_checkheaders(ptr noundef nonnull %0, ptr noundef nonnull @.str.97, i64 noundef 13) #11
  %.not36 = icmp eq ptr %18, null
  br i1 %.not36, label %19, label %53

19:                                               ; preds = %17
  %20 = tail call i64 @Curl_creader_total_length(ptr noundef nonnull %0) #11
  %21 = load ptr, ptr @Curl_cfree, align 8, !tbaa !88
  %22 = getelementptr inbounds nuw i8, ptr %0, i64 4944
  %23 = load ptr, ptr %22, align 8, !tbaa !114
  tail call void %21(ptr noundef %23) #11
  %24 = getelementptr inbounds nuw i8, ptr %0, i64 808
  %25 = load i64, ptr %24, align 8, !tbaa !193
  %26 = icmp slt i64 %25, 0
  br i1 %26, label %27, label %30

27:                                               ; preds = %19
  %28 = add nsw i64 %20, -1
  %29 = tail call ptr (ptr, ...) @curl_maprintf(ptr noundef nonnull @.str.98, i64 noundef %28, i64 noundef %20) #11
  br label %52

30:                                               ; preds = %19
  %31 = getelementptr inbounds nuw i8, ptr %0, i64 4472
  %32 = load i64, ptr %31, align 8, !tbaa !153
  %.not37 = icmp eq i64 %32, 0
  br i1 %.not37, label %48, label %33

33:                                               ; preds = %30
  %34 = getelementptr inbounds nuw i8, ptr %0, i64 457
  %35 = load i32, ptr %34, align 1
  %36 = and i32 %35, 262144
  %.not38 = icmp eq i32 %36, 0
  br i1 %.not38, label %40, label %37

37:                                               ; preds = %33
  %38 = getelementptr inbounds nuw i8, ptr %0, i64 4536
  %39 = load i64, ptr %38, align 8, !tbaa !183
  br label %42

40:                                               ; preds = %33
  %41 = add nsw i64 %32, %20
  br label %42

42:                                               ; preds = %40, %37
  %43 = phi i64 [ %39, %37 ], [ %41, %40 ]
  %44 = getelementptr inbounds nuw i8, ptr %0, i64 4464
  %45 = load ptr, ptr %44, align 8, !tbaa !192
  %46 = add nsw i64 %43, -1
  %47 = tail call ptr (ptr, ...) @curl_maprintf(ptr noundef nonnull @.str.99, ptr noundef %45, i64 noundef %46, i64 noundef %43) #11
  br label %52

48:                                               ; preds = %30
  %49 = getelementptr inbounds nuw i8, ptr %0, i64 4464
  %50 = load ptr, ptr %49, align 8, !tbaa !192
  %51 = tail call ptr (ptr, ...) @curl_maprintf(ptr noundef nonnull @.str.100, ptr noundef %50, i64 noundef %20) #11
  br label %52

52:                                               ; preds = %42, %48, %27
  %.sink = phi ptr [ %47, %42 ], [ %51, %48 ], [ %29, %27 ]
  store ptr %.sink, ptr %22, align 8, !tbaa !114
  %.not39.not = icmp eq ptr %.sink, null
  br i1 %.not39.not, label %54, label %53

53:                                               ; preds = %52, %6, %16, %9, %17, %2
  br label %54

54:                                               ; preds = %52, %53
  %.1 = phi i32 [ 0, %53 ], [ 27, %52 ]
  ret i32 %.1
}